	.arch armv8-a
	.file	"processed.f08"
	.text
.Ltext0:
	.align	2
	.global	__function_module_MOD_f
	.type	__function_module_MOD_f, %function
__function_module_MOD_f:
.LFB0:
	.file 1 "processed.f08"
	.loc 1 69 0
	.cfi_startproc
	stp	x29, x30, [sp, -48]!
	.cfi_def_cfa_offset 48
	.cfi_offset 29, -48
	.cfi_offset 30, -40
	mov	x29, sp
	str	x0, [sp, 24]
.LBB2:
	.loc 1 20 0
	ldr	x0, [sp, 24]
	ldr	s0, [x0]
	fmov	s1, 2.0e+0
	bl	powf
	fneg	s0, s0
	bl	expf
	str	s0, [sp, 44]
.LBE2:
	.loc 1 21 0
	ldr	w0, [sp, 44]
	fmov	s0, w0
	ldp	x29, x30, [sp], 48
	.cfi_restore 30
	.cfi_restore 29
	.cfi_def_cfa_offset 0
	ret
	.cfi_endproc
.LFE0:
	.size	__function_module_MOD_f, .-__function_module_MOD_f
	.align	2
	.global	__integral_module_MOD_integral
	.type	__integral_module_MOD_integral, %function
__integral_module_MOD_integral:
.LFB1:
	.loc 1 33 0
	.cfi_startproc
	stp	x29, x30, [sp, -128]!
	.cfi_def_cfa_offset 128
	.cfi_offset 29, -128
	.cfi_offset 30, -120
	mov	x29, sp
	stp	d8, d9, [sp, 16]
	str	d10, [sp, 32]
	.cfi_offset 72, -112
	.cfi_offset 73, -104
	.cfi_offset 74, -96
	str	x0, [sp, 72]
	str	x1, [sp, 64]
	str	x2, [sp, 56]
	str	x3, [sp, 48]
	.loc 1 50 0
	ldr	x0, [sp, 56]
	ldr	s1, [x0]
	ldr	x0, [sp, 64]
	ldr	s0, [x0]
	fsub	s0, s1, s0
	str	s0, [sp, 120]
	.loc 1 51 0
	ldr	x0, [sp, 64]
	ldr	s1, [x0]
	ldr	x0, [sp, 56]
	ldr	s0, [x0]
	fadd	s0, s1, s0
	fmov	s1, s0
	fmov	s0, 2.0e+0
	fdiv	s0, s1, s0
	str	s0, [sp, 100]
	.loc 1 52 0
	ldr	x1, [sp, 72]
	ldr	x0, [sp, 64]
	blr	x1
.LVL0:
	fmov	s8, s0
	ldr	x1, [sp, 72]
	ldr	x0, [sp, 56]
	blr	x1
.LVL1:
	fadd	s0, s8, s0
	fmov	s1, s0
	ldr	s0, [sp, 120]
	fmul	s1, s1, s0
	fmov	s0, 2.0e+0
	fdiv	s0, s1, s0
	str	s0, [sp, 116]
	.loc 1 54 0
	fmov	s0, 2.0e+0
	ldr	s1, [sp, 120]
	fdiv	s8, s1, s0
	ldr	x1, [sp, 72]
	ldr	x0, [sp, 64]
	blr	x1
.LVL2:
	fmov	s9, s0
	add	x0, sp, 100
	ldr	x1, [sp, 72]
	blr	x1
.LVL3:
	fadd	s0, s9, s0
	fmul	s1, s8, s0
	fmov	s0, 2.0e+0
	fdiv	s8, s1, s0
	fmov	s0, 2.0e+0
	ldr	s1, [sp, 120]
	fdiv	s9, s1, s0
	add	x0, sp, 100
	ldr	x1, [sp, 72]
	blr	x1
.LVL4:
	fmov	s10, s0
	ldr	x1, [sp, 72]
	ldr	x0, [sp, 56]
	blr	x1
.LVL5:
	fadd	s0, s10, s0
	fmul	s1, s9, s0
	fmov	s0, 2.0e+0
	fdiv	s0, s1, s0
	fadd	s0, s8, s0
	str	s0, [sp, 112]
	.loc 1 55 0
	ldr	s1, [sp, 116]
	ldr	s0, [sp, 112]
	fsub	s0, s1, s0
	fabs	s1, s0
	ldr	x0, [sp, 48]
	ldr	s2, [x0]
	fmov	s0, 3.0e+0
	fmul	s0, s2, s0
	fcmpe	s1, s0
	bpl	.L9
	.loc 1 56 0
	ldr	w0, [sp, 112]
	str	w0, [sp, 124]
	b	.L6
.L9:
.LBB3:
	.loc 1 58 0
	ldr	x0, [sp, 48]
	ldr	s1, [x0]
	fmov	s0, 2.0e+0
	fdiv	s0, s1, s0
	str	s0, [sp, 96]
	add	x1, sp, 96
	add	x0, sp, 100
	mov	x3, x1
	mov	x2, x0
	ldr	x1, [sp, 64]
	ldr	x0, [sp, 72]
	bl	__integral_module_MOD_integral
	str	s0, [sp, 108]
.LBE3:
.LBB4:
	.loc 1 59 0
	ldr	x0, [sp, 48]
	ldr	s1, [x0]
	fmov	s0, 2.0e+0
	fdiv	s0, s1, s0
	str	s0, [sp, 92]
	add	x1, sp, 92
	add	x0, sp, 100
	mov	x3, x1
	ldr	x2, [sp, 56]
	mov	x1, x0
	ldr	x0, [sp, 72]
	bl	__integral_module_MOD_integral
	str	s0, [sp, 104]
.LBE4:
	.loc 1 60 0
	ldr	s1, [sp, 108]
	ldr	s0, [sp, 104]
	fadd	s0, s1, s0
	str	s0, [sp, 124]
.L6:
	.loc 1 63 0
	ldr	w0, [sp, 124]
	fmov	s0, w0
	ldp	d8, d9, [sp, 16]
	ldr	d10, [sp, 32]
	ldp	x29, x30, [sp], 128
	.cfi_restore 30
	.cfi_restore 29
	.cfi_restore 74
	.cfi_restore 72
	.cfi_restore 73
	.cfi_def_cfa_offset 0
	ret
	.cfi_endproc
.LFE1:
	.size	__integral_module_MOD_integral, .-__integral_module_MOD_integral
	.section	.rodata
	.align	2
.LC0:
	.word	1008981770
	.align	3
.LC1:
	.string	"case_study_3_17.f08"
	.align	3
.LC2:
	.ascii	"(a, f11.6)"
	.align	3
.LC3:
	.ascii	"The integral is approximately "
	.align	3
.LC4:
	.ascii	"The exact answer is "
	.align	2
.LC5:
	.word	1071833028
	.text
	.align	2
	.type	MAIN__, %function
MAIN__:
.LFB2:
	.loc 1 67 0
	.cfi_startproc
	sub	sp, sp, #560
	.cfi_def_cfa_offset 560
	stp	x29, x30, [sp]
	.cfi_offset 29, -560
	.cfi_offset 30, -552
	mov	x29, sp
	.loc 1 77 0
	fmov	s0, -4.0e+0
	str	s0, [sp, 548]
	.loc 1 78 0
	fmov	s0, 4.0e+0
	str	s0, [sp, 552]
.LBB5:
	.loc 1 79 0
	add	x2, sp, 552
	add	x1, sp, 548
	adrp	x0, .LC0
	add	x3, x0, :lo12:.LC0
	adrp	x0, __function_module_MOD_f
	add	x0, x0, :lo12:__function_module_MOD_f
	bl	__integral_module_MOD_integral
	str	s0, [sp, 556]
.LBE5:
.LBB6:
	.loc 1 80 0
	adrp	x0, .LC1
	add	x0, x0, :lo12:.LC1
	str	x0, [sp, 24]
	mov	w0, 80
	str	w0, [sp, 32]
	adrp	x0, .LC2
	add	x0, x0, :lo12:.LC2
	str	x0, [sp, 96]
	mov	x0, 10
	str	x0, [sp, 104]
	mov	w0, 4096
	str	w0, [sp, 16]
	mov	w0, 6
	str	w0, [sp, 20]
	add	x0, sp, 16
	bl	_gfortran_st_write
	add	x3, sp, 16
	mov	x2, 30
	adrp	x0, .LC3
	add	x1, x0, :lo12:.LC3
	mov	x0, x3
	bl	_gfortran_transfer_character_write
	add	x1, sp, 556
	add	x0, sp, 16
	mov	w2, 4
	bl	_gfortran_transfer_real_write
	add	x0, sp, 16
	bl	_gfortran_st_write_done
.LBE6:
.LBB7:
	.loc 1 81 0
	adrp	x0, .LC1
	add	x0, x0, :lo12:.LC1
	str	x0, [sp, 24]
	mov	w0, 81
	str	w0, [sp, 32]
	adrp	x0, .LC2
	add	x0, x0, :lo12:.LC2
	str	x0, [sp, 96]
	mov	x0, 10
	str	x0, [sp, 104]
	mov	w0, 4096
	str	w0, [sp, 16]
	mov	w0, 6
	str	w0, [sp, 20]
	add	x0, sp, 16
	bl	_gfortran_st_write
	add	x3, sp, 16
	mov	x2, 20
	adrp	x0, .LC4
	add	x1, x0, :lo12:.LC4
	mov	x0, x3
	bl	_gfortran_transfer_character_write
.LBB8:
	add	x3, sp, 16
	mov	w2, 4
	adrp	x0, .LC5
	add	x1, x0, :lo12:.LC5
	mov	x0, x3
	bl	_gfortran_transfer_real_write
.LBE8:
	add	x0, sp, 16
	bl	_gfortran_st_write_done
.LBE7:
	.loc 1 83 0
	nop
	ldp	x29, x30, [sp]
	add	sp, sp, 560
	.cfi_restore 29
	.cfi_restore 30
	.cfi_def_cfa_offset 0
	ret
	.cfi_endproc
.LFE2:
	.size	MAIN__, .-MAIN__
	.align	2
	.global	main
	.type	main, %function
main:
.LFB3:
	.loc 1 69 0
	.cfi_startproc
	stp	x29, x30, [sp, -32]!
	.cfi_def_cfa_offset 32
	.cfi_offset 29, -32
	.cfi_offset 30, -24
	mov	x29, sp
	str	w0, [sp, 28]
	str	x1, [sp, 16]
	.loc 1 69 0
	ldr	x1, [sp, 16]
	ldr	w0, [sp, 28]
	bl	_gfortran_set_args
	adrp	x0, options.2.2656
	add	x1, x0, :lo12:options.2.2656
	mov	w0, 7
	bl	_gfortran_set_options
	bl	MAIN__
	mov	w0, 0
	ldp	x29, x30, [sp], 32
	.cfi_restore 30
	.cfi_restore 29
	.cfi_def_cfa_offset 0
	ret
	.cfi_endproc
.LFE3:
	.size	main, .-main
	.section	.rodata
	.align	3
	.type	options.2.2656, %object
	.size	options.2.2656, 28
options.2.2656:
	.word	68
	.word	8191
	.word	0
	.word	1
	.word	1
	.word	0
	.word	31
	.text
.Letext0:
	.section	.note.GNU-stack,"",@progbits
