	.file	"processed.f08"
	.text
.Ltext0:
	.globl	__function_module_MOD_f
	.type	__function_module_MOD_f, @function
__function_module_MOD_f:
.LFB0:
	.file 1 "processed.f08"
	.loc 1 69 0
	.cfi_startproc
	pushl	%ebp
	.cfi_def_cfa_offset 8
	.cfi_offset 5, -8
	movl	%esp, %ebp
	.cfi_def_cfa_register 5
	pushl	%ebx
	subl	$20, %esp
	.cfi_offset 3, -12
	call	__x86.get_pc_thunk.bx
	addl	$_GLOBAL_OFFSET_TABLE_, %ebx
.LBB2:
	.loc 1 20 0
	movl	8(%ebp), %eax
	flds	(%eax)
	subl	$8, %esp
	flds	.LC0@GOTOFF(%ebx)
	leal	-4(%esp), %esp
	fstps	(%esp)
	leal	-4(%esp), %esp
	fstps	(%esp)
	call	powf@PLT
	addl	$16, %esp
	fchs
	subl	$12, %esp
	leal	-4(%esp), %esp
	fstps	(%esp)
	call	expf@PLT
	addl	$16, %esp
	fstps	-12(%ebp)
.LBE2:
	.loc 1 21 0
	flds	-12(%ebp)
	movl	-4(%ebp), %ebx
	leave
	.cfi_restore 5
	.cfi_restore 3
	.cfi_def_cfa 4, 4
	ret
	.cfi_endproc
.LFE0:
	.size	__function_module_MOD_f, .-__function_module_MOD_f
	.globl	__integral_module_MOD_integral
	.type	__integral_module_MOD_integral, @function
__integral_module_MOD_integral:
.LFB1:
	.loc 1 33 0
	.cfi_startproc
	pushl	%ebp
	.cfi_def_cfa_offset 8
	.cfi_offset 5, -8
	movl	%esp, %ebp
	.cfi_def_cfa_register 5
	pushl	%ebx
	subl	$68, %esp
	.cfi_offset 3, -12
	call	__x86.get_pc_thunk.bx
	addl	$_GLOBAL_OFFSET_TABLE_, %ebx
	.loc 1 50 0
	movl	16(%ebp), %eax
	flds	(%eax)
	movl	12(%ebp), %eax
	flds	(%eax)
	fsubrp	%st, %st(1)
	fstps	-16(%ebp)
	.loc 1 51 0
	movl	12(%ebp), %eax
	flds	(%eax)
	movl	16(%ebp), %eax
	flds	(%eax)
	faddp	%st, %st(1)
	flds	.LC0@GOTOFF(%ebx)
	fdivrp	%st, %st(1)
	fstps	-36(%ebp)
	.loc 1 52 0
	subl	$12, %esp
	pushl	12(%ebp)
	movl	8(%ebp), %eax
	call	*%eax
.LVL0:
	addl	$16, %esp
	fstps	-60(%ebp)
	subl	$12, %esp
	pushl	16(%ebp)
	movl	8(%ebp), %eax
	call	*%eax
.LVL1:
	addl	$16, %esp
	fadds	-60(%ebp)
	fmuls	-16(%ebp)
	flds	.LC0@GOTOFF(%ebx)
	fdivrp	%st, %st(1)
	fstps	-20(%ebp)
	.loc 1 54 0
	flds	-16(%ebp)
	flds	.LC0@GOTOFF(%ebx)
	fdivrp	%st, %st(1)
	fstps	-60(%ebp)
	subl	$12, %esp
	pushl	12(%ebp)
	movl	8(%ebp), %eax
	call	*%eax
.LVL2:
	addl	$16, %esp
	fstps	-64(%ebp)
	subl	$12, %esp
	leal	-36(%ebp), %eax
	pushl	%eax
	movl	8(%ebp), %eax
	call	*%eax
.LVL3:
	addl	$16, %esp
	fadds	-64(%ebp)
	flds	-60(%ebp)
	fmulp	%st, %st(1)
	flds	.LC0@GOTOFF(%ebx)
	fdivrp	%st, %st(1)
	fstps	-60(%ebp)
	flds	-16(%ebp)
	flds	.LC0@GOTOFF(%ebx)
	fdivrp	%st, %st(1)
	fstps	-64(%ebp)
	subl	$12, %esp
	leal	-36(%ebp), %eax
	pushl	%eax
	movl	8(%ebp), %eax
	call	*%eax
.LVL4:
	addl	$16, %esp
	fstps	-68(%ebp)
	subl	$12, %esp
	pushl	16(%ebp)
	movl	8(%ebp), %eax
	call	*%eax
.LVL5:
	addl	$16, %esp
	fadds	-68(%ebp)
	flds	-64(%ebp)
	fmulp	%st, %st(1)
	flds	.LC0@GOTOFF(%ebx)
	fdivrp	%st, %st(1)
	fadds	-60(%ebp)
	fstps	-24(%ebp)
	.loc 1 55 0
	flds	-20(%ebp)
	fsubs	-24(%ebp)
	fabs
	movl	20(%ebp), %eax
	flds	(%eax)
	flds	.LC1@GOTOFF(%ebx)
	fmulp	%st, %st(1)
	fcomip	%st(1), %st
	fstp	%st(0)
	jbe	.L9
	.loc 1 56 0
	flds	-24(%ebp)
	fstps	-12(%ebp)
	jmp	.L6
.L9:
.LBB3:
	.loc 1 58 0
	movl	20(%ebp), %eax
	flds	(%eax)
	flds	.LC0@GOTOFF(%ebx)
	fdivrp	%st, %st(1)
	fstps	-40(%ebp)
	leal	-40(%ebp), %eax
	pushl	%eax
	leal	-36(%ebp), %eax
	pushl	%eax
	pushl	12(%ebp)
	pushl	8(%ebp)
	call	__integral_module_MOD_integral
	addl	$16, %esp
	fstps	-28(%ebp)
.LBE3:
.LBB4:
	.loc 1 59 0
	movl	20(%ebp), %eax
	flds	(%eax)
	flds	.LC0@GOTOFF(%ebx)
	fdivrp	%st, %st(1)
	fstps	-44(%ebp)
	leal	-44(%ebp), %eax
	pushl	%eax
	pushl	16(%ebp)
	leal	-36(%ebp), %eax
	pushl	%eax
	pushl	8(%ebp)
	call	__integral_module_MOD_integral
	addl	$16, %esp
	fstps	-32(%ebp)
.LBE4:
	.loc 1 60 0
	flds	-28(%ebp)
	fadds	-32(%ebp)
	fstps	-12(%ebp)
.L6:
	.loc 1 63 0
	flds	-12(%ebp)
	movl	-4(%ebp), %ebx
	leave
	.cfi_restore 5
	.cfi_restore 3
	.cfi_def_cfa 4, 4
	ret
	.cfi_endproc
.LFE1:
	.size	__integral_module_MOD_integral, .-__integral_module_MOD_integral
	.section	.rodata
	.align 4
.LC4:
	.long	1008981770
.LC5:
	.string	"case_study_3_17.f08"
.LC6:
	.ascii	"(a, f11.6)"
.LC7:
	.ascii	"The integral is approximately "
.LC8:
	.ascii	"The exact answer is "
	.align 4
.LC9:
	.long	1071833028
	.text
	.type	MAIN__, @function
MAIN__:
.LFB2:
	.loc 1 67 0
	.cfi_startproc
	pushl	%ebp
	.cfi_def_cfa_offset 8
	.cfi_offset 5, -8
	movl	%esp, %ebp
	.cfi_def_cfa_register 5
	pushl	%ebx
	subl	$356, %esp
	.cfi_offset 3, -12
	call	__x86.get_pc_thunk.bx
	addl	$_GLOBAL_OFFSET_TABLE_, %ebx
	.loc 1 77 0
	flds	.LC2@GOTOFF(%ebx)
	fstps	-20(%ebp)
	.loc 1 78 0
	flds	.LC3@GOTOFF(%ebx)
	fstps	-16(%ebp)
.LBB5:
	.loc 1 79 0
	leal	.LC4@GOTOFF(%ebx), %eax
	pushl	%eax
	leal	-16(%ebp), %eax
	pushl	%eax
	leal	-20(%ebp), %eax
	pushl	%eax
	leal	__function_module_MOD_f@GOTOFF(%ebx), %eax
	pushl	%eax
	call	__integral_module_MOD_integral
	addl	$16, %esp
	fstps	-12(%ebp)
.LBE5:
.LBB6:
	.loc 1 80 0
	leal	.LC5@GOTOFF(%ebx), %eax
	movl	%eax, -352(%ebp)
	movl	$80, -348(%ebp)
	leal	.LC6@GOTOFF(%ebx), %eax
	movl	%eax, -312(%ebp)
	movl	$10, -308(%ebp)
	movl	$4096, -360(%ebp)
	movl	$6, -356(%ebp)
	subl	$12, %esp
	leal	-360(%ebp), %eax
	pushl	%eax
	call	_gfortran_st_write@PLT
	addl	$16, %esp
	subl	$4, %esp
	pushl	$30
	leal	.LC7@GOTOFF(%ebx), %eax
	pushl	%eax
	leal	-360(%ebp), %eax
	pushl	%eax
	call	_gfortran_transfer_character_write@PLT
	addl	$16, %esp
	subl	$4, %esp
	pushl	$4
	leal	-12(%ebp), %eax
	pushl	%eax
	leal	-360(%ebp), %eax
	pushl	%eax
	call	_gfortran_transfer_real_write@PLT
	addl	$16, %esp
	subl	$12, %esp
	leal	-360(%ebp), %eax
	pushl	%eax
	call	_gfortran_st_write_done@PLT
	addl	$16, %esp
.LBE6:
.LBB7:
	.loc 1 81 0
	leal	.LC5@GOTOFF(%ebx), %eax
	movl	%eax, -352(%ebp)
	movl	$81, -348(%ebp)
	leal	.LC6@GOTOFF(%ebx), %eax
	movl	%eax, -312(%ebp)
	movl	$10, -308(%ebp)
	movl	$4096, -360(%ebp)
	movl	$6, -356(%ebp)
	subl	$12, %esp
	leal	-360(%ebp), %eax
	pushl	%eax
	call	_gfortran_st_write@PLT
	addl	$16, %esp
	subl	$4, %esp
	pushl	$20
	leal	.LC8@GOTOFF(%ebx), %eax
	pushl	%eax
	leal	-360(%ebp), %eax
	pushl	%eax
	call	_gfortran_transfer_character_write@PLT
	addl	$16, %esp
.LBB8:
	subl	$4, %esp
	pushl	$4
	leal	.LC9@GOTOFF(%ebx), %eax
	pushl	%eax
	leal	-360(%ebp), %eax
	pushl	%eax
	call	_gfortran_transfer_real_write@PLT
	addl	$16, %esp
.LBE8:
	subl	$12, %esp
	leal	-360(%ebp), %eax
	pushl	%eax
	call	_gfortran_st_write_done@PLT
	addl	$16, %esp
.LBE7:
	.loc 1 83 0
	nop
	movl	-4(%ebp), %ebx
	leave
	.cfi_restore 5
	.cfi_restore 3
	.cfi_def_cfa 4, 4
	ret
	.cfi_endproc
.LFE2:
	.size	MAIN__, .-MAIN__
	.globl	main
	.type	main, @function
main:
.LFB3:
	.loc 1 69 0
	.cfi_startproc
	leal	4(%esp), %ecx
	.cfi_def_cfa 1, 0
	andl	$-16, %esp
	pushl	-4(%ecx)
	pushl	%ebp
	.cfi_escape 0x10,0x5,0x2,0x75,0
	movl	%esp, %ebp
	pushl	%ebx
	pushl	%ecx
	.cfi_escape 0xf,0x3,0x75,0x78,0x6
	.cfi_escape 0x10,0x3,0x2,0x75,0x7c
	call	__x86.get_pc_thunk.bx
	addl	$_GLOBAL_OFFSET_TABLE_, %ebx
	movl	%ecx, %eax
	.loc 1 69 0
	subl	$8, %esp
	pushl	4(%eax)
	pushl	(%eax)
	call	_gfortran_set_args@PLT
	addl	$16, %esp
	subl	$8, %esp
	leal	options.2.3724@GOTOFF(%ebx), %eax
	pushl	%eax
	pushl	$7
	call	_gfortran_set_options@PLT
	addl	$16, %esp
	call	MAIN__
	movl	$0, %eax
	leal	-8(%ebp), %esp
	popl	%ecx
	.cfi_restore 1
	.cfi_def_cfa 1, 0
	popl	%ebx
	.cfi_restore 3
	popl	%ebp
	.cfi_restore 5
	leal	-4(%ecx), %esp
	.cfi_def_cfa 4, 4
	ret
	.cfi_endproc
.LFE3:
	.size	main, .-main
	.section	.rodata
	.align 4
	.type	options.2.3724, @object
	.size	options.2.3724, 28
options.2.3724:
	.long	68
	.long	8191
	.long	0
	.long	1
	.long	1
	.long	0
	.long	31
	.align 4
.LC0:
	.long	1073741824
	.align 4
.LC1:
	.long	1077936128
	.align 4
.LC2:
	.long	3229614080
	.align 4
.LC3:
	.long	1082130432
	.section	.text.__x86.get_pc_thunk.bx,"axG",@progbits,__x86.get_pc_thunk.bx,comdat
	.globl	__x86.get_pc_thunk.bx
	.hidden	__x86.get_pc_thunk.bx
	.type	__x86.get_pc_thunk.bx, @function
__x86.get_pc_thunk.bx:
.LFB4:
	.cfi_startproc
	movl	(%esp), %ebx
	ret
	.cfi_endproc
.LFE4:
	.text
.Letext0:
	.section	.note.GNU-stack,"",@progbits
